Certificate:
    Data:
        Version: 3 (0x2)
        Serial Number: 1 (0x1)
    Signature Algorithm: sha1WithRSAEncryption
        Issuer: DC=org, DC=simple, O=Simple Inc, OU=Simple Signing CA, CN=Simple Signing CA
        Validity
            Not Before: May  3 22:31:32 2018 GMT
            Not After : May  2 22:31:32 2020 GMT
        Subject: DC=org, DC=simple, O=Simple Inc, CN=Ryan Moore
        Subject Public Key Info:
            Public Key Algorithm: rsaEncryption
                Public-Key: (2048 bit)
                Modulus:
                    00:ae:46:5b:9d:cd:78:18:71:75:0a:80:d2:44:c7:
                    98:ef:45:7b:4a:eb:c7:4d:14:9b:9b:18:a5:63:35:
                    4d:c0:88:21:6e:aa:5a:95:7d:99:ba:3c:5e:3e:2b:
                    28:41:bf:17:4f:5a:e9:c5:40:e3:f5:02:f3:4b:04:
                    30:3a:af:ff:03:9f:f4:6e:6d:0e:51:e3:86:1b:b7:
                    24:30:6d:ce:f8:4d:26:df:36:83:29:6e:dd:d2:e4:
                    a6:81:5c:b4:f4:a1:4d:f3:a1:a7:12:8d:bf:55:35:
                    46:b9:77:d0:50:37:5f:56:14:60:51:b1:8c:2f:73:
                    c8:10:70:e9:11:a8:55:47:85:01:54:a5:f4:21:10:
                    80:45:3f:68:f7:b9:ba:19:1a:57:06:be:19:21:ae:
                    3e:f9:57:77:8c:c7:2c:85:fa:ad:bb:49:54:04:70:
                    22:f2:fa:5d:d4:bc:8b:91:da:93:e0:39:ad:18:bb:
                    d5:a9:7a:a6:6c:53:38:9b:e7:dc:75:46:59:82:a4:
                    25:d1:28:fa:99:07:22:ae:e6:2b:f0:3e:9b:5b:02:
                    11:f7:f9:9d:12:26:2a:89:d2:a6:6d:03:93:3a:75:
                    59:28:94:38:1d:a8:dd:49:5a:3c:a0:63:3a:bd:61:
                    fb:40:ea:24:1a:e7:59:3b:2f:2d:52:02:a8:a7:61:
                    84:f5
                Exponent: 65537 (0x10001)
        X509v3 extensions:
            X509v3 Key Usage: critical
                Digital Signature, Key Encipherment
            X509v3 Basic Constraints: 
                CA:FALSE
            X509v3 Extended Key Usage: 
                E-mail Protection, TLS Web Client Authentication
            X509v3 Subject Key Identifier: 
                E0:48:D7:2E:14:FA:BE:6A:C7:02:68:0A:DA:2B:AD:A6:02:37:97:76
            X509v3 Authority Key Identifier: 
                keyid:E9:AC:52:31:E9:0B:7F:A2:C9:7C:D0:05:D4:9E:7F:82:29:9C:5E:8A

            X509v3 Subject Alternative Name: 
                email:ryanmfalcons@gmail.com
    Signature Algorithm: sha1WithRSAEncryption
         95:35:d0:20:53:ab:f5:cf:c7:c4:45:d5:aa:4c:e2:e1:3e:dd:
         3c:0f:a1:ce:9d:47:b6:ca:c5:a7:74:24:2d:f9:1d:f6:8b:a5:
         52:ae:f8:1f:07:b7:48:24:8f:12:6c:5a:a4:df:eb:e7:59:26:
         62:60:2a:b5:cc:47:a4:dc:a6:88:d6:4e:e8:4e:3b:21:34:59:
         0a:42:b6:cb:ab:48:f4:b3:72:b6:96:ec:c3:a5:32:6d:fe:16:
         68:4d:b7:8a:40:e3:87:c7:40:13:90:8c:29:ea:68:c8:b2:19:
         02:89:91:d9:56:20:bf:fd:e2:e3:eb:69:a0:ed:81:c6:d9:1a:
         54:ab:75:50:75:ca:de:82:cf:32:be:b5:9f:a2:72:5f:a3:ff:
         9f:31:28:14:9d:48:d9:6f:f2:6a:eb:a2:f8:ff:a9:4f:86:b4:
         2b:e6:d1:cc:24:18:01:c5:51:fc:5b:c7:01:3f:45:86:ec:c1:
         33:58:0c:a8:70:a3:48:82:ad:ba:5f:6c:d6:96:3f:16:06:06:
         a5:40:0e:ba:a2:0b:50:e2:0d:b7:27:e6:c5:88:04:7e:50:a2:
         35:2f:8c:cd:13:89:b5:54:74:22:82:d0:79:ad:a7:6f:e3:fe:
         38:a9:98:16:40:6d:83:04:fd:9d:3b:f9:53:0e:e2:b9:14:3b:
         ec:91:b8:0d
-----BEGIN CERTIFICATE-----
MIID7TCCAtWgAwIBAgIBATANBgkqhkiG9w0BAQUFADB6MRMwEQYKCZImiZPyLGQB
GRYDb3JnMRYwFAYKCZImiZPyLGQBGRYGc2ltcGxlMRMwEQYDVQQKDApTaW1wbGUg
SW5jMRowGAYDVQQLDBFTaW1wbGUgU2lnbmluZyBDQTEaMBgGA1UEAwwRU2ltcGxl
IFNpZ25pbmcgQ0EwHhcNMTgwNTAzMjIzMTMyWhcNMjAwNTAyMjIzMTMyWjBXMRMw
EQYKCZImiZPyLGQBGRYDb3JnMRYwFAYKCZImiZPyLGQBGRYGc2ltcGxlMRMwEQYD
VQQKDApTaW1wbGUgSW5jMRMwEQYDVQQDDApSeWFuIE1vb3JlMIIBIjANBgkqhkiG
9w0BAQEFAAOCAQ8AMIIBCgKCAQEArkZbnc14GHF1CoDSRMeY70V7SuvHTRSbmxil
YzVNwIghbqpalX2ZujxePisoQb8XT1rpxUDj9QLzSwQwOq//A5/0bm0OUeOGG7ck
MG3O+E0m3zaDKW7d0uSmgVy09KFN86GnEo2/VTVGuXfQUDdfVhRgUbGML3PIEHDp
EahVR4UBVKX0IRCART9o97m6GRpXBr4ZIa4++Vd3jMcshfqtu0lUBHAi8vpd1LyL
kdqT4DmtGLvVqXqmbFM4m+fcdUZZgqQl0Sj6mQciruYr8D6bWwIR9/mdEiYqidKm
bQOTOnVZKJQ4HajdSVo8oGM6vWH7QOokGudZOy8tUgKop2GE9QIDAQABo4GgMIGd
MA4GA1UdDwEB/wQEAwIFoDAJBgNVHRMEAjAAMB0GA1UdJQQWMBQGCCsGAQUFBwME
BggrBgEFBQcDAjAdBgNVHQ4EFgQU4EjXLhT6vmrHAmgK2iutpgI3l3YwHwYDVR0j
BBgwFoAU6axSMekLf6LJfNAF1J5/gimcXoowIQYDVR0RBBowGIEWcnlhbm1mYWxj
b25zQGdtYWlsLmNvbTANBgkqhkiG9w0BAQUFAAOCAQEAlTXQIFOr9c/HxEXVqkzi
4T7dPA+hzp1HtsrFp3QkLfkd9oulUq74Hwe3SCSPEmxapN/r51kmYmAqtcxHpNym
iNZO6E47ITRZCkK2y6tI9LNytpbsw6Uybf4WaE23ikDjh8dAE5CMKepoyLIZAomR
2VYgv/3i4+tpoO2BxtkaVKt1UHXK3oLPMr61n6JyX6P/nzEoFJ1I2W/yauui+P+p
T4a0K+bRzCQYAcVR/FvHAT9FhuzBM1gMqHCjSIKtul9s1pY/FgYGpUAOuqILUOIN
tyfmxYgEflCiNS+MzROJtVR0IoLQea2nb+P+OKmYFkBtgwT9nTv5Uw7iuRQ77JG4
DQ==
-----END CERTIFICATE-----
