Certificate:
    Data:
        Version: 3 (0x2)
        Serial Number: 1 (0x1)
    Signature Algorithm: sha1WithRSAEncryption
        Issuer: DC=org, DC=simple, O=Simple Inc, OU=Simple Root CA, CN=Simple Root CA
        Validity
            Not Before: May  3 22:15:19 2018 GMT
            Not After : May  2 22:15:19 2028 GMT
        Subject: DC=org, DC=simple, O=Simple Inc, OU=Simple Root CA, CN=Simple Root CA
        Subject Public Key Info:
            Public Key Algorithm: rsaEncryption
                Public-Key: (2048 bit)
                Modulus:
                    00:f7:89:b3:3e:33:a2:0d:08:5b:d0:4a:3c:83:63:
                    cc:01:33:58:ea:8d:3e:5b:da:09:86:a6:9d:13:bf:
                    ff:f2:a9:4d:b9:86:28:02:35:3d:58:fc:91:b0:64:
                    7c:cc:60:9e:74:9d:6a:f0:4a:d8:82:5b:43:ae:9e:
                    1f:45:cd:76:cf:10:bf:8a:fa:d3:49:65:1f:5e:fd:
                    ed:f1:ba:2a:70:f5:80:3d:e5:ff:4f:f3:fa:f0:9e:
                    3b:ea:5d:ec:31:d8:c1:29:b2:74:d7:77:9e:81:43:
                    7e:24:97:3c:65:83:ce:ae:44:23:23:0a:c7:87:fe:
                    d4:5a:cb:c3:0c:ad:7e:18:d4:d4:e9:de:75:c5:13:
                    af:ac:22:81:34:01:c9:35:bd:c9:8e:ed:ab:fc:17:
                    ea:74:f7:6f:83:13:da:13:bf:47:73:86:af:d9:b2:
                    00:3f:6b:56:8e:70:8d:1c:e8:ab:dd:4b:81:8c:90:
                    ad:7a:a5:a6:8f:62:11:2d:eb:4a:58:06:07:63:bd:
                    b8:bc:5a:4f:fb:90:b7:ae:d0:99:92:82:17:51:9e:
                    9b:57:2b:bf:63:b3:09:7e:30:fc:b4:ac:45:e0:59:
                    94:81:e2:66:36:a3:ba:2b:f6:e1:3b:04:58:87:94:
                    d9:7d:2b:24:ce:c8:ab:3c:78:a3:20:c9:7d:83:17:
                    8b:9f
                Exponent: 65537 (0x10001)
        X509v3 extensions:
            X509v3 Key Usage: critical
                Certificate Sign, CRL Sign
            X509v3 Basic Constraints: critical
                CA:TRUE
            X509v3 Subject Key Identifier: 
                23:AB:7D:D8:11:FC:A6:2E:46:BD:AE:7C:C9:43:8E:D0:AC:A0:4F:C6
            X509v3 Authority Key Identifier: 
                keyid:23:AB:7D:D8:11:FC:A6:2E:46:BD:AE:7C:C9:43:8E:D0:AC:A0:4F:C6

    Signature Algorithm: sha1WithRSAEncryption
         dd:cc:42:c8:5c:9e:87:68:16:a9:63:15:86:13:7b:ed:e9:10:
         68:ad:aa:a6:2d:da:e9:ea:5f:56:ae:67:37:77:ac:68:92:c7:
         6c:4f:0c:d9:f0:6d:e3:6e:33:f8:14:9d:6c:0e:3d:b3:9c:c5:
         56:30:44:5a:3f:26:9a:4a:f7:a6:9a:0a:55:2e:7a:77:eb:e7:
         01:b3:ce:67:14:e6:30:65:66:e9:ea:06:74:f7:8d:cb:e5:4b:
         21:71:3b:8e:ab:32:dc:15:5b:f3:7b:78:2a:b8:53:23:a1:5f:
         c5:4b:27:c5:dd:3c:15:46:be:ce:49:3a:4d:ae:08:c2:1f:47:
         37:8b:e9:b0:8f:d6:6f:3f:cf:a8:4b:23:3c:23:e3:72:a8:f5:
         e9:ad:14:c8:bf:fa:07:93:2f:0b:a9:48:90:e5:b2:ff:80:98:
         34:e7:bb:a4:15:7f:86:50:8e:a0:d1:b4:c2:fc:3b:90:c9:21:
         97:ed:67:d4:34:13:f6:8f:c8:8c:6a:3f:f2:1e:4a:35:b9:47:
         e9:af:d8:a0:50:7c:98:e0:ac:5d:02:95:76:cf:f3:21:12:d2:
         08:75:d3:e9:fc:b6:54:5e:2a:f1:78:a1:ea:32:ec:55:42:ba:
         62:65:e1:0c:d0:a0:75:fd:6b:d7:22:66:4f:ac:b2:ce:c1:cc:
         ad:5d:d6:9e
-----BEGIN CERTIFICATE-----
MIIDxjCCAq6gAwIBAgIBATANBgkqhkiG9w0BAQUFADB0MRMwEQYKCZImiZPyLGQB
GRYDb3JnMRYwFAYKCZImiZPyLGQBGRYGc2ltcGxlMRMwEQYDVQQKDApTaW1wbGUg
SW5jMRcwFQYDVQQLDA5TaW1wbGUgUm9vdCBDQTEXMBUGA1UEAwwOU2ltcGxlIFJv
b3QgQ0EwHhcNMTgwNTAzMjIxNTE5WhcNMjgwNTAyMjIxNTE5WjB0MRMwEQYKCZIm
iZPyLGQBGRYDb3JnMRYwFAYKCZImiZPyLGQBGRYGc2ltcGxlMRMwEQYDVQQKDApT
aW1wbGUgSW5jMRcwFQYDVQQLDA5TaW1wbGUgUm9vdCBDQTEXMBUGA1UEAwwOU2lt
cGxlIFJvb3QgQ0EwggEiMA0GCSqGSIb3DQEBAQUAA4IBDwAwggEKAoIBAQD3ibM+
M6INCFvQSjyDY8wBM1jqjT5b2gmGpp0Tv//yqU25higCNT1Y/JGwZHzMYJ50nWrw
StiCW0Ounh9FzXbPEL+K+tNJZR9e/e3xuipw9YA95f9P8/rwnjvqXewx2MEpsnTX
d56BQ34klzxlg86uRCMjCseH/tRay8MMrX4Y1NTp3nXFE6+sIoE0Ack1vcmO7av8
F+p092+DE9oTv0dzhq/ZsgA/a1aOcI0c6KvdS4GMkK16paaPYhEt60pYBgdjvbi8
Wk/7kLeu0JmSghdRnptXK79jswl+MPy0rEXgWZSB4mY2o7or9uE7BFiHlNl9KyTO
yKs8eKMgyX2DF4ufAgMBAAGjYzBhMA4GA1UdDwEB/wQEAwIBBjAPBgNVHRMBAf8E
BTADAQH/MB0GA1UdDgQWBBQjq33YEfymLka9rnzJQ47QrKBPxjAfBgNVHSMEGDAW
gBQjq33YEfymLka9rnzJQ47QrKBPxjANBgkqhkiG9w0BAQUFAAOCAQEA3cxCyFye
h2gWqWMVhhN77ekQaK2qpi3a6epfVq5nN3esaJLHbE8M2fBt424z+BSdbA49s5zF
VjBEWj8mmkr3ppoKVS56d+vnAbPOZxTmMGVm6eoGdPeNy+VLIXE7jqsy3BVb83t4
KrhTI6FfxUsnxd08FUa+zkk6Ta4Iwh9HN4vpsI/Wbz/PqEsjPCPjcqj16a0UyL/6
B5MvC6lIkOWy/4CYNOe7pBV/hlCOoNG0wvw7kMkhl+1n1DQT9o/IjGo/8h5KNblH
6a/YoFB8mOCsXQKVds/zIRLSCHXT6fy2VF4q8Xih6jLsVUK6YmXhDNCgdf1r1yJm
T6yyzsHMrV3Wng==
-----END CERTIFICATE-----
