Certificate:
    Data:
        Version: 3 (0x2)
        Serial Number: 2 (0x2)
    Signature Algorithm: sha1WithRSAEncryption
        Issuer: DC=org, DC=simple, O=Simple Inc, OU=Simple Signing CA, CN=Simple Signing CA
        Validity
            Not Before: May  7 07:53:55 2018 GMT
            Not After : May  6 07:53:55 2020 GMT
        Subject: DC=org, DC=simple, O=Simple Inc, CN=www.simple.org
        Subject Public Key Info:
            Public Key Algorithm: rsaEncryption
                Public-Key: (2048 bit)
                Modulus:
                    00:cc:bd:36:17:fd:ac:f2:8d:10:09:ac:5b:d3:19:
                    a3:06:2a:73:50:94:cf:68:1d:21:3b:2a:1d:fd:6f:
                    21:97:4c:ab:95:60:d4:28:16:79:e0:26:7a:b5:47:
                    f7:df:39:bd:e5:9e:4a:64:85:9b:4f:61:f7:f2:4e:
                    4d:b5:e4:36:32:66:d2:73:52:0e:70:a6:cb:28:7f:
                    3b:a4:75:83:fe:0f:1c:fa:b1:e7:49:60:4c:2e:59:
                    57:85:06:af:a8:54:8c:a4:57:1b:91:d7:c2:4a:d3:
                    25:de:f4:0d:9c:b3:e2:0f:94:12:56:3d:71:de:ae:
                    9c:0d:3f:03:5f:b0:18:f9:ef:f1:3e:56:05:b1:8e:
                    9f:3f:07:78:7f:3d:d0:2a:ee:02:5c:d9:5b:6f:31:
                    6d:fa:27:40:25:b8:2c:c5:90:d0:51:1e:72:13:1c:
                    8a:03:0b:4a:65:31:db:79:08:12:ab:a5:0d:30:67:
                    dc:69:eb:59:53:55:1c:f8:b7:0f:cd:48:61:4b:84:
                    87:22:7c:40:c7:3a:45:67:13:c8:f9:98:1f:94:ac:
                    50:90:e8:0c:7e:0b:ac:23:97:91:26:84:8d:c4:a3:
                    bb:ff:da:6c:8e:d3:40:96:e2:a9:6e:04:d9:8a:dc:
                    98:e3:66:7b:3f:84:49:6c:c5:52:9f:73:f6:e5:9e:
                    f3:01
                Exponent: 65537 (0x10001)
        X509v3 extensions:
            X509v3 Key Usage: critical
                Digital Signature, Key Encipherment
            X509v3 Basic Constraints: 
                CA:FALSE
            X509v3 Extended Key Usage: 
                TLS Web Server Authentication, TLS Web Client Authentication
            X509v3 Subject Key Identifier: 
                3B:5C:18:FE:CF:DE:3B:41:C1:A4:07:C4:66:91:D5:76:27:42:EC:34
            X509v3 Authority Key Identifier: 
                keyid:E9:AC:52:31:E9:0B:7F:A2:C9:7C:D0:05:D4:9E:7F:82:29:9C:5E:8A

            X509v3 Subject Alternative Name: 
                DNS:www.simple.org
    Signature Algorithm: sha1WithRSAEncryption
         31:e3:b7:1c:99:4a:28:0a:ef:98:57:89:52:93:b8:fc:d6:74:
         22:69:3e:a5:98:ce:5f:24:95:85:04:6f:58:0f:8a:72:bb:e4:
         61:c8:1d:af:ae:9a:a5:34:d3:38:f2:81:fa:15:2d:d2:99:e5:
         2a:41:2e:cb:af:a9:47:ea:ce:9e:0b:0a:7c:d2:66:f4:6a:7b:
         5f:5f:3c:26:c9:71:87:9d:b6:1e:1d:c1:30:92:41:9a:f7:dc:
         c5:f6:73:47:f1:5e:e3:4c:da:28:dc:ad:50:a7:34:27:c5:d4:
         2a:33:12:ec:d6:ee:de:a1:99:fc:ff:cd:cf:40:60:1f:d5:72:
         d7:fd:cd:a4:20:12:99:5d:b4:74:bb:ba:c3:8a:53:0c:8f:5f:
         d5:ef:a7:04:6b:54:12:47:2b:36:8b:84:c8:17:76:90:3f:40:
         5a:06:7d:5f:c0:e6:a4:50:91:10:be:73:99:f8:f4:f1:53:4d:
         e1:ff:56:28:23:da:20:36:84:9b:fc:e1:cc:7f:cc:d9:c1:57:
         c7:44:ed:8e:bb:31:30:c6:3f:2a:5e:a4:3f:88:7a:bb:90:d9:
         a5:33:b8:3c:4b:ee:69:1d:8d:94:7f:8d:0e:c8:74:ab:9e:d2:
         0a:f4:9b:b2:3a:a3:36:0b:99:5f:d7:a0:c2:56:17:c2:7b:67:
         29:90:38:84
-----BEGIN CERTIFICATE-----
MIID6TCCAtGgAwIBAgIBAjANBgkqhkiG9w0BAQUFADB6MRMwEQYKCZImiZPyLGQB
GRYDb3JnMRYwFAYKCZImiZPyLGQBGRYGc2ltcGxlMRMwEQYDVQQKDApTaW1wbGUg
SW5jMRowGAYDVQQLDBFTaW1wbGUgU2lnbmluZyBDQTEaMBgGA1UEAwwRU2ltcGxl
IFNpZ25pbmcgQ0EwHhcNMTgwNTA3MDc1MzU1WhcNMjAwNTA2MDc1MzU1WjBbMRMw
EQYKCZImiZPyLGQBGRYDb3JnMRYwFAYKCZImiZPyLGQBGRYGc2ltcGxlMRMwEQYD
VQQKDApTaW1wbGUgSW5jMRcwFQYDVQQDDA53d3cuc2ltcGxlLm9yZzCCASIwDQYJ
KoZIhvcNAQEBBQADggEPADCCAQoCggEBAMy9Nhf9rPKNEAmsW9MZowYqc1CUz2gd
ITsqHf1vIZdMq5Vg1CgWeeAmerVH9985veWeSmSFm09h9/JOTbXkNjJm0nNSDnCm
yyh/O6R1g/4PHPqx50lgTC5ZV4UGr6hUjKRXG5HXwkrTJd70DZyz4g+UElY9cd6u
nA0/A1+wGPnv8T5WBbGOnz8HeH890CruAlzZW28xbfonQCW4LMWQ0FEechMcigML
SmUx23kIEqulDTBn3GnrWVNVHPi3D81IYUuEhyJ8QMc6RWcTyPmYH5SsUJDoDH4L
rCOXkSaEjcSju//abI7TQJbiqW4E2YrcmONmez+ESWzFUp9z9uWe8wECAwEAAaOB
mDCBlTAOBgNVHQ8BAf8EBAMCBaAwCQYDVR0TBAIwADAdBgNVHSUEFjAUBggrBgEF
BQcDAQYIKwYBBQUHAwIwHQYDVR0OBBYEFDtcGP7P3jtBwaQHxGaR1XYnQuw0MB8G
A1UdIwQYMBaAFOmsUjHpC3+iyXzQBdSef4IpnF6KMBkGA1UdEQQSMBCCDnd3dy5z
aW1wbGUub3JnMA0GCSqGSIb3DQEBBQUAA4IBAQAx47ccmUooCu+YV4lSk7j81nQi
aT6lmM5fJJWFBG9YD4pyu+RhyB2vrpqlNNM48oH6FS3SmeUqQS7Lr6lH6s6eCwp8
0mb0antfXzwmyXGHnbYeHcEwkkGa99zF9nNH8V7jTNoo3K1QpzQnxdQqMxLs1u7e
oZn8/83PQGAf1XLX/c2kIBKZXbR0u7rDilMMj1/V76cEa1QSRys2i4TIF3aQP0Ba
Bn1fwOakUJEQvnOZ+PTxU03h/1YoI9ogNoSb/OHMf8zZwVfHRO2OuzEwxj8qXqQ/
iHq7kNmlM7g8S+5pHY2Uf40OyHSrntIK9JuyOqM2C5lf16DCVhfCe2cpkDiE
-----END CERTIFICATE-----
